target datalayout = "e-m:e-p270:32:32-p271:32:32-p272:64:64-i64:64-i128:128-f80:128-n8:16:32:64-S128"
target triple = "x86_64-pc-linux-gnu"

; Function Attrs: nounwind uwtable
define internal i32 @text_getc(ptr noundef %0) #0 {
  %2 = alloca ptr, align 8
  %3 = alloca i32, align 4
  store ptr %0, ptr %2, align 8, !tbaa !13
  call void @llvm.lifetime.start.p0(i64 4, ptr %3) #6
  %4 = load ptr, ptr %2, align 8, !tbaa !13
  %5 = call i32 @getc(ptr noundef %4)
  store i32 %5, ptr %3, align 4, !tbaa !11
  %6 = load i32, ptr %3, align 4, !tbaa !11
  %7 = icmp eq i32 %6, 35
  br i1 %7, label %8, label %21

8:                                                ; preds = %1
  br label %9

9:                                                ; preds = %18, %8
  %10 = load ptr, ptr %2, align 8, !tbaa !13
  %11 = call i32 @getc(ptr noundef %10)
  store i32 %11, ptr %3, align 4, !tbaa !11
  br label %12

12:                                               ; preds = %9
  %13 = load i32, ptr %3, align 4, !tbaa !11
  %14 = icmp ne i32 %13, 10
  br i1 %14, label %15, label %18

15:                                               ; preds = %12
  %16 = load i32, ptr %3, align 4, !tbaa !11
  %17 = icmp ne i32 %16, -1
  br label %18

18:                                               ; preds = %15, %12
  %19 = phi i1 [ false, %12 ], [ %17, %15 ]
  br i1 %19, label %9, label %20, !llvm.loop !72

20:                                               ; preds = %18
  br label %21

21:                                               ; preds = %20, %1
  %22 = load i32, ptr %3, align 4, !tbaa !11
  call void @llvm.lifetime.end.p0(i64 4, ptr %3) #6
  ret i32 %22
}

; Function Attrs: nounwind uwtable
define internal i32 @read_scan_integer(ptr noundef %0, ptr noundef %1, ptr noundef %2) #0 {
  %4 = alloca i32, align 4
  %5 = alloca ptr, align 8
  %6 = alloca ptr, align 8
  %7 = alloca ptr, align 8
  %8 = alloca i32, align 4
  %9 = alloca i32, align 4
  store ptr %0, ptr %5, align 8, !tbaa !13
  store ptr %1, ptr %6, align 8, !tbaa !20
  store ptr %2, ptr %7, align 8, !tbaa !22
  call void @llvm.lifetime.start.p0(i64 4, ptr %8) #6
  %10 = load ptr, ptr %5, align 8, !tbaa !13
  %11 = load ptr, ptr %6, align 8, !tbaa !20
  %12 = load ptr, ptr %7, align 8, !tbaa !22
  %13 = call i32 @read_text_integer(ptr noundef %10, ptr noundef %11, ptr noundef %12)
  %14 = icmp ne i32 %13, 0
  br i1 %14, label %16, label %15

15:                                               ; preds = %3
  store i32 0, ptr %4, align 4
  store i32 1, ptr %9, align 4
  br label %68

16:                                               ; preds = %3
  %17 = load ptr, ptr %7, align 8, !tbaa !22
  %18 = load i32, ptr %17, align 4, !tbaa !11
  store i32 %18, ptr %8, align 4, !tbaa !11
  br label %19

19:                                               ; preds = %34, %16
  %20 = load i32, ptr %8, align 4, !tbaa !11
  %21 = icmp ne i32 %20, -1
  br i1 %21, label %22, label %32

22:                                               ; preds = %19
  %23 = call ptr @__ctype_b_loc() #7
  %24 = load ptr, ptr %23, align 8, !tbaa !24
  %25 = load i32, ptr %8, align 4, !tbaa !11
  %26 = sext i32 %25 to i64
  %27 = getelementptr inbounds i16, ptr %24, i64 %26
  %28 = load i16, ptr %27, align 2, !tbaa !26
  %29 = zext i16 %28 to i32
  %30 = and i32 %29, 8192
  %31 = icmp ne i32 %30, 0
  br label %32

32:                                               ; preds = %22, %19
  %33 = phi i1 [ false, %19 ], [ %31, %22 ]
  br i1 %33, label %34, label %37

34:                                               ; preds = %32
  %35 = load ptr, ptr %5, align 8, !tbaa !13
  %36 = call i32 @text_getc(ptr noundef %35)
  store i32 %36, ptr %8, align 4, !tbaa !11
  br label %19, !llvm.loop !59

37:                                               ; preds = %32
  %38 = call ptr @__ctype_b_loc() #7
  %39 = load ptr, ptr %38, align 8, !tbaa !24
  %40 = load i32, ptr %8, align 4, !tbaa !11
  %41 = sext i32 %40 to i64
  %42 = getelementptr inbounds i16, ptr %39, i64 %41
  %43 = load i16, ptr %42, align 2, !tbaa !26
  %44 = zext i16 %43 to i32
  %45 = and i32 %44, 2048
  %46 = icmp ne i32 %45, 0
  br i1 %46, label %47, label %54

47:                                               ; preds = %37
  %48 = load i32, ptr %8, align 4, !tbaa !11
  %49 = load ptr, ptr %5, align 8, !tbaa !13
  %50 = call i32 @ungetc(i32 noundef %48, ptr noundef %49)
  %51 = icmp eq i32 %50, -1
  br i1 %51, label %52, label %53

52:                                               ; preds = %47
  store i32 0, ptr %4, align 4
  store i32 1, ptr %9, align 4
  br label %68

53:                                               ; preds = %47
  store i32 32, ptr %8, align 4, !tbaa !11
  br label %65

54:                                               ; preds = %37
  %55 = load i32, ptr %8, align 4, !tbaa !11
  %56 = icmp ne i32 %55, -1
  br i1 %56, label %57, label %64

57:                                               ; preds = %54
  %58 = load i32, ptr %8, align 4, !tbaa !11
  %59 = icmp ne i32 %58, 59
  br i1 %59, label %60, label %64

60:                                               ; preds = %57
  %61 = load i32, ptr %8, align 4, !tbaa !11
  %62 = icmp ne i32 %61, 58
  br i1 %62, label %63, label %64

63:                                               ; preds = %60
  store i32 32, ptr %8, align 4, !tbaa !11
  br label %64

64:                                               ; preds = %63, %60, %57, %54
  br label %65

65:                                               ; preds = %64, %53
  %66 = load i32, ptr %8, align 4, !tbaa !11
  %67 = load ptr, ptr %7, align 8, !tbaa !22
  store i32 %66, ptr %67, align 4, !tbaa !11
  store i32 1, ptr %4, align 4
  store i32 1, ptr %9, align 4
  br label %68

68:                                               ; preds = %65, %52, %15
  call void @llvm.lifetime.end.p0(i64 4, ptr %8) #6
  %69 = load i32, ptr %4, align 4
  ret i32 %69
}