; Function Attrs: nofree nounwind uwtable
define internal fastcc range(i32 0, 2) i32 @read_scan_integer(ptr noundef nonnull captures(none) %0, ptr noundef nonnull writeonly captures(none) %1, ptr noundef nonnull captures(none) %2) unnamed_addr #3 {
  %4 = tail call fastcc i32 @read_text_integer(ptr noundef %0, ptr noundef %1, ptr noundef %2)
  %.not = icmp eq i32 %4, 0
  br i1 %.not, label %28, label %5

5:                                                ; preds = %3
  %6 = load i32, ptr %2, align 4, !tbaa !11
  %.not27 = icmp eq i32 %6, -1
  %.pre = tail call ptr @__ctype_b_loc() #10
  br i1 %.not27, label %.critedge, label %.lr.ph

.lr.ph:                                           ; preds = %5, %text_getc.exit
  %.022 = phi i32 [ %.0.i, %text_getc.exit ], [ %6, %5 ]
  %7 = load ptr, ptr %.pre, align 8, !tbaa !13
  %8 = sext i32 %.022 to i64
  %9 = getelementptr inbounds i16, ptr %7, i64 %8
  %10 = load i16, ptr %9, align 2, !tbaa !15
  %11 = and i16 %10, 8192
  %.not19 = icmp eq i16 %11, 0
  br i1 %.not19, label %.critedge, label %12

12:                                               ; preds = %.lr.ph
  %13 = tail call i32 @getc(ptr noundef nonnull %0)
  %14 = icmp eq i32 %13, 35
  br i1 %14, label %.preheader.i, label %text_getc.exit

.preheader.i:                                     ; preds = %12, %.preheader.i
  %15 = tail call i32 @getc(ptr noundef nonnull %0)
  switch i32 %15, label %.preheader.i [
    i32 -1, label %text_getc.exit
    i32 10, label %text_getc.exit
  ]

text_getc.exit:                                   ; preds = %.preheader.i, %.preheader.i, %12
  %.0.i = phi i32 [ %13, %12 ], [ %15, %.preheader.i ], [ %15, %.preheader.i ]
  %.not28 = icmp eq i32 %.0.i, -1
  br i1 %.not28, label %.critedge, label %.lr.ph, !llvm.loop !22

.critedge:                                        ; preds = %.lr.ph, %text_getc.exit, %5
  %.0.lcssa = phi i32 [ -1, %5 ], [ -1, %text_getc.exit ], [ %.022, %.lr.ph ]
  %.lcssa21 = phi i1 [ false, %5 ], [ %.not19, %text_getc.exit ], [ %.not19, %.lr.ph ]
  %16 = load ptr, ptr %.pre, align 8, !tbaa !13
  %17 = sext i32 %.0.lcssa to i64
  %18 = getelementptr inbounds i16, ptr %16, i64 %17
  %19 = load i16, ptr %18, align 2, !tbaa !15
  %20 = and i16 %19, 2048
  %.not20 = icmp eq i16 %20, 0
  br i1 %.not20, label %24, label %21

21:                                               ; preds = %.critedge
  %22 = tail call i32 @ungetc(i32 noundef %.0.lcssa, ptr noundef nonnull %0)
  %23 = icmp eq i32 %22, -1
  br i1 %23, label %28, label %27

24:                                               ; preds = %.critedge
  %25 = add i32 %.0.lcssa, -60
  %26 = icmp ult i32 %25, -2
  %or.cond3 = and i1 %.lcssa21, %26
  %spec.store.select = select i1 %or.cond3, i32 32, i32 %.0.lcssa
  br label %27

27:                                               ; preds = %21, %24
  %.1 = phi i32 [ %spec.store.select, %24 ], [ 32, %21 ]
  store i32 %.1, ptr %2, align 4, !tbaa !11
  br label %28

28:                                               ; preds = %21, %3, %27
  %.018 = phi i32 [ 1, %27 ], [ 0, %3 ], [ 0, %21 ]
  ret i32 %.018
}